target datalayout = "e-m:e-p270:32:32-p271:32:32-p272:64:64-i64:64-i128:128-f80:128-n8:16:32:64-S128"
target triple = "x86_64-pc-linux-gnu"

%struct.ident_t = type { i32, i32, i32, i32, ptr }
%class.SortedTreeNodes = type { ptr, i32, ptr }
%class.Octree = type <{ ptr, ptr, %class.SortedTreeNodes, i32, i32, i32, [4 x i8], double, double, i32, [4 x i8] }>
%struct.DenseNodeData = type { i64, ptr }

@1 = private unnamed_addr constant %struct.ident_t { i32 0, i32 514, i32 0, i32 22, ptr @0 }, align 8

; Function Attrs: mustprogress nounwind uwtable
define linkonce_odr noundef i32 @_ZNK15SortedTreeNodes3endEi(ptr noundef nonnull align 8 dereferenceable(24) %0, i32 noundef %1) #4 comdat align 2 {
  %3 = alloca ptr, align 8
  %4 = alloca i32, align 4
  store ptr %0, ptr %3, align 8
  store i32 %1, ptr %4, align 4
  %5 = load ptr, ptr %3, align 8
  %6 = getelementptr inbounds %class.SortedTreeNodes, ptr %5, i32 0, i32 0
  %7 = load ptr, ptr %6, align 8
  %8 = load i32, ptr %4, align 4
  %9 = sext i32 %8 to i64
  %10 = getelementptr inbounds ptr, ptr %7, i64 %9
  %11 = load ptr, ptr %10, align 8
  %12 = load i32, ptr %4, align 4
  %13 = zext i32 %12 to i64
  %14 = shl i64 1, %13
  %15 = getelementptr inbounds i32, ptr %11, i64 %14
  %16 = load i32, ptr %15, align 4
  ret i32 %16
}

; Function Attrs: mustprogress nounwind uwtable
define linkonce_odr noundef i32 @_ZNK15SortedTreeNodes5beginEi(ptr noundef nonnull align 8 dereferenceable(24) %0, i32 noundef %1) #4 comdat align 2 {
  %3 = alloca ptr, align 8
  %4 = alloca i32, align 4
  store ptr %0, ptr %3, align 8
  store i32 %1, ptr %4, align 4
  %5 = load ptr, ptr %3, align 8
  %6 = getelementptr inbounds %class.SortedTreeNodes, ptr %5, i32 0, i32 0
  %7 = load ptr, ptr %6, align 8
  %8 = load i32, ptr %4, align 4
  %9 = sext i32 %8 to i64
  %10 = getelementptr inbounds ptr, ptr %7, i64 %9
  %11 = load ptr, ptr %10, align 8
  %12 = getelementptr inbounds i32, ptr %11, i64 0
  %13 = load i32, ptr %12, align 4
  ret i32 %13
}

; Function Attrs: mustprogress nounwind uwtable
define linkonce_odr noundef i32 @_ZNK6OctreeIfE14_localToGlobalEi(ptr noundef nonnull align 8 dereferenceable(76) %0, i32 noundef %1) #4 comdat align 2 {
  %3 = alloca ptr, align 8
  %4 = alloca i32, align 4
  store ptr %0, ptr %3, align 8
  store i32 %1, ptr %4, align 4
  %5 = load ptr, ptr %3, align 8
  %6 = load i32, ptr %4, align 4
  %7 = getelementptr inbounds %class.Octree, ptr %5, i32 0, i32 5
  %8 = load i32, ptr %7, align 8
  %9 = add nsw i32 %6, %8
  ret i32 %9
}

; Function Attrs: noreturn nounwind uwtable
define linkonce_odr hidden void @__clang_call_terminate(ptr noundef %0) #9 comdat {
  %2 = call ptr @__cxa_begin_catch(ptr %0) #3
  call void @_ZSt9terminatev() #27
  unreachable
}

; Function Attrs: mustprogress nounwind uwtable
define linkonce_odr noundef nonnull align 4 dereferenceable(4) ptr @_ZN13DenseNodeDataIfLi2EEixEi(ptr noundef nonnull align 8 dereferenceable(16) %0, i32 noundef %1) #4 comdat align 2 {
  %3 = alloca ptr, align 8
  %4 = alloca i32, align 4
  store ptr %0, ptr %3, align 8
  store i32 %1, ptr %4, align 4
  %5 = load ptr, ptr %3, align 8
  %6 = getelementptr inbounds %struct.DenseNodeData, ptr %5, i32 0, i32 1
  %7 = load ptr, ptr %6, align 8
  %8 = load i32, ptr %4, align 4
  %9 = sext i32 %8 to i64
  %10 = getelementptr inbounds float, ptr %7, i64 %9
  ret ptr %10
}

; Function Attrs: mustprogress nounwind uwtable
define linkonce_odr noundef nonnull align 4 dereferenceable(4) ptr @_ZNK13DenseNodeDataIfLi2EEixEi(ptr noundef nonnull align 8 dereferenceable(16) %0, i32 noundef %1) #4 comdat align 2 {
  %3 = alloca ptr, align 8
  %4 = alloca i32, align 4
  store ptr %0, ptr %3, align 8
  store i32 %1, ptr %4, align 4
  %5 = load ptr, ptr %3, align 8
  %6 = getelementptr inbounds %struct.DenseNodeData, ptr %5, i32 0, i32 1
  %7 = load ptr, ptr %6, align 8
  %8 = load i32, ptr %4, align 4
  %9 = sext i32 %8 to i64
  %10 = getelementptr inbounds float, ptr %7, i64 %9
  ret ptr %10
}

; Function Attrs: mustprogress uwtable
define linkonce_odr noundef i32 @_ZNK6OctreeIfE10_sNodesEndEi(ptr noundef nonnull align 8 dereferenceable(76) %0, i32 noundef %1) #5 comdat align 2 {
  %3 = alloca ptr, align 8
  %4 = alloca i32, align 4
  store ptr %0, ptr %3, align 8
  store i32 %1, ptr %4, align 4
  %5 = load ptr, ptr %3, align 8
  %6 = getelementptr inbounds %class.Octree, ptr %5, i32 0, i32 2
  %7 = load i32, ptr %4, align 4
  %8 = call noundef i32 @_ZNK6OctreeIfE14_localToGlobalEi(ptr noundef nonnull align 8 dereferenceable(76) %5, i32 noundef %7)
  %9 = call noundef i32 @_ZNK15SortedTreeNodes3endEi(ptr noundef nonnull align 8 dereferenceable(24) %6, i32 noundef %8)
  ret i32 %9
}

; Function Attrs: mustprogress uwtable
define linkonce_odr noundef i32 @_ZNK6OctreeIfE12_sNodesBeginEi(ptr noundef nonnull align 8 dereferenceable(76) %0, i32 noundef %1) #5 comdat align 2 {
  %3 = alloca ptr, align 8
  %4 = alloca i32, align 4
  store ptr %0, ptr %3, align 8
  store i32 %1, ptr %4, align 4
  %5 = load ptr, ptr %3, align 8
  %6 = getelementptr inbounds %class.Octree, ptr %5, i32 0, i32 2
  %7 = load i32, ptr %4, align 4
  %8 = call noundef i32 @_ZNK6OctreeIfE14_localToGlobalEi(ptr noundef nonnull align 8 dereferenceable(76) %5, i32 noundef %7)
  %9 = call noundef i32 @_ZNK15SortedTreeNodes5beginEi(ptr noundef nonnull align 8 dereferenceable(24) %6, i32 noundef %8)
  ret i32 %9
}

; Function Attrs: norecurse nounwind uwtable
define internal void @_ZNK6OctreeIfE18coarseCoefficientsIfLi2EL12BoundaryType2EEE13DenseNodeDataIT_XT0_EERKS5_.omp_outlined(ptr noalias noundef %0, ptr noalias noundef %1, ptr noundef %2, ptr noundef nonnull align 8 dereferenceable(16) %3, ptr noundef nonnull align 8 dereferenceable(16) %4) #17 personality ptr @__gxx_personality_v0 {
  %6 = alloca ptr, align 8
  %7 = alloca ptr, align 8
  %8 = alloca ptr, align 8
  %9 = alloca ptr, align 8
  %10 = alloca ptr, align 8
  %11 = alloca ptr, align 8
  %12 = alloca i32, align 4
  %13 = alloca i32, align 4
  %14 = alloca i32, align 4
  %15 = alloca i32, align 4
  %16 = alloca i32, align 4
  %17 = alloca i32, align 4
  %18 = alloca i32, align 4
  %19 = alloca i32, align 4
  %20 = alloca i32, align 4
  %21 = alloca i32, align 4
  store ptr %0, ptr %6, align 8
  store ptr %1, ptr %7, align 8
  store ptr %2, ptr %8, align 8
  store ptr %3, ptr %9, align 8
  store ptr %4, ptr %10, align 8
  %22 = load ptr, ptr %8, align 8
  %23 = load ptr, ptr %9, align 8
  %24 = load ptr, ptr %10, align 8
  store ptr %24, ptr %11, align 8
  %25 = invoke noundef i32 @_ZNK6OctreeIfE12_sNodesBeginEi(ptr noundef nonnull align 8 dereferenceable(76) %22, i32 noundef 0)
          to label %26 unwind label %82

26:                                               ; preds = %5
  store i32 %25, ptr %13, align 4
  %27 = getelementptr inbounds %class.Octree, ptr %22, i32 0, i32 4
  %28 = load i32, ptr %27, align 4
  %29 = sub nsw i32 %28, 1
  %30 = invoke noundef i32 @_ZNK6OctreeIfE10_sNodesEndEi(ptr noundef nonnull align 8 dereferenceable(76) %22, i32 noundef %29)
          to label %31 unwind label %82

31:                                               ; preds = %26
  store i32 %30, ptr %14, align 4
  %32 = load i32, ptr %14, align 4
  %33 = load i32, ptr %13, align 4
  %34 = sub i32 %32, %33
  %35 = sub i32 %34, 1
  %36 = add i32 %35, 1
  %37 = udiv i32 %36, 1
  %38 = sub i32 %37, 1
  store i32 %38, ptr %15, align 4
  %39 = load i32, ptr %13, align 4
  store i32 %39, ptr %16, align 4
  %40 = load i32, ptr %13, align 4
  %41 = load i32, ptr %14, align 4
  %42 = icmp slt i32 %40, %41
  br i1 %42, label %43, label %81

43:                                               ; preds = %31
  store i32 0, ptr %17, align 4
  %44 = load i32, ptr %15, align 4
  store i32 %44, ptr %18, align 4
  store i32 1, ptr %19, align 4
  store i32 0, ptr %20, align 4
  %45 = load ptr, ptr %6, align 8
  %46 = load i32, ptr %45, align 4
  call void @__kmpc_for_static_init_4u(ptr @1, i32 %46, i32 34, ptr %20, ptr %17, ptr %18, ptr %19, i32 1, i32 1)
  %47 = load i32, ptr %18, align 4
  %48 = load i32, ptr %15, align 4
  %49 = icmp ugt i32 %47, %48
  br i1 %49, label %50, label %52

50:                                               ; preds = %43
  %51 = load i32, ptr %15, align 4
  br label %54

52:                                               ; preds = %43
  %53 = load i32, ptr %18, align 4
  br label %54

54:                                               ; preds = %52, %50
  %55 = phi i32 [ %51, %50 ], [ %53, %52 ]
  store i32 %55, ptr %18, align 4
  %56 = load i32, ptr %17, align 4
  store i32 %56, ptr %12, align 4
  br label %57

57:                                               ; preds = %74, %54
  %58 = load i32, ptr %12, align 4
  %59 = load i32, ptr %18, align 4
  %60 = add i32 %59, 1
  %61 = icmp ult i32 %58, %60
  br i1 %61, label %62, label %77

62:                                               ; preds = %57
  %63 = load i32, ptr %13, align 4
  %64 = load i32, ptr %12, align 4
  %65 = mul i32 %64, 1
  %66 = add i32 %63, %65
  store i32 %66, ptr %21, align 4
  %67 = load ptr, ptr %11, align 8
  %68 = load i32, ptr %21, align 4
  %69 = call noundef nonnull align 4 dereferenceable(4) ptr @_ZNK13DenseNodeDataIfLi2EEixEi(ptr noundef nonnull align 8 dereferenceable(16) %67, i32 noundef %68)
  %70 = load float, ptr %69, align 4
  %71 = load i32, ptr %21, align 4
  %72 = call noundef nonnull align 4 dereferenceable(4) ptr @_ZN13DenseNodeDataIfLi2EEixEi(ptr noundef nonnull align 8 dereferenceable(16) %23, i32 noundef %71)
  store float %70, ptr %72, align 4
  br label %73

73:                                               ; preds = %62
  br label %74

74:                                               ; preds = %73
  %75 = load i32, ptr %12, align 4
  %76 = add i32 %75, 1
  store i32 %76, ptr %12, align 4
  br label %57

77:                                               ; preds = %57
  br label %78

78:                                               ; preds = %77
  %79 = load ptr, ptr %6, align 8
  %80 = load i32, ptr %79, align 4
  call void @__kmpc_for_static_fini(ptr @1, i32 %80)
  br label %81

81:                                               ; preds = %78, %31
  ret void

82:                                               ; preds = %26, %5
  %83 = landingpad { ptr, i32 }
          catch ptr null
  %84 = extractvalue { ptr, i32 } %83, 0
  call void @__clang_call_terminate(ptr %84) #27
  unreachable
}